target datalayout = "e-m:e-p270:32:32-p271:32:32-p272:64:64-i64:64-i128:128-f80:128-n8:16:32:64-S128"
target triple = "x86_64-unknown-linux-gnu"

; Function Attrs: mustprogress nounwind uwtable
define internal void @_ZL29deleteOlsonToMetaMappingEntryPv(ptr noundef %obj) #1 {
entry:
  %obj.addr = alloca ptr, align 8
  %entry1 = alloca ptr, align 8
  store ptr %obj, ptr %obj.addr, align 8
  %0 = load ptr, ptr %obj.addr, align 8
  store ptr %0, ptr %entry1, align 8
  %1 = load ptr, ptr %entry1, align 8
  %isnull = icmp eq ptr %1, null
  br i1 %isnull, label %delete.end, label %delete.notnull

delete.notnull:                                   ; preds = %entry
  call void @_ZN6icu_757UMemorydlEPv(ptr noundef %1) #10
  br label %delete.end

delete.end:                                       ; preds = %delete.notnull, %entry
  ret void
}