; Function Attrs: mustprogress nounwind uwtable
define internal void @_ZL29deleteOlsonToMetaMappingEntryPv(ptr noundef %obj) #6 {
entry:
  %isnull = icmp eq ptr %obj, null
  br i1 %isnull, label %delete.end, label %delete.notnull

delete.notnull:                                   ; preds = %entry
  tail call void @_ZN6icu_757UMemorydlEPv(ptr noundef nonnull %obj) #12
  br label %delete.end

delete.end:                                       ; preds = %delete.notnull, %entry
  ret void
}